target datalayout = "e-m:e-p270:32:32-p271:32:32-p272:64:64-i64:64-i128:128-f80:128-n8:16:32:64-S128"
target triple = "x86_64-pc-linux-gnu"

%"struct.vcpkg::Version" = type <{ %"class.std::__cxx11::basic_string", i32, [4 x i8] }>
%"class.std::__cxx11::basic_string" = type { %"struct.std::__cxx11::basic_string<char>::_Alloc_hider", i64, %union.anon }
%"struct.std::__cxx11::basic_string<char>::_Alloc_hider" = type { ptr }
%union.anon = type { i64, [8 x i8] }
%"class.fmt::v10::basic_string_view" = type { ptr, i64 }
%"class.std::back_insert_iterator" = type { ptr }
%"class.fmt::v10::basic_format_string" = type { %"class.fmt::v10::basic_string_view" }
%"class.fmt::v10::basic_format_args" = type { i64, %union.anon.30 }
%union.anon.30 = type { ptr }
%"class.fmt::v10::format_arg_store" = type { %"struct.fmt::v10::detail::arg_data" }
%"struct.fmt::v10::detail::arg_data" = type { [1 x %"class.fmt::v10::detail::value"] }
%"class.fmt::v10::detail::value" = type { %union.anon.31 }
%union.anon.31 = type { i128 }
%"class.fmt::v10::detail::iterator_buffer" = type { %"class.fmt::v10::detail::buffer", ptr }
%"class.fmt::v10::detail::buffer" = type { ptr, ptr, i64, i64 }
%"class.fmt::v10::detail::locale_ref" = type { ptr }
%"struct.fmt::v10::detail::arg_mapper" = type { i8 }
%struct.accessor = type { %"class.std::back_insert_iterator" }

@.str = private unnamed_addr constant [4 x i8] c"#{}\00", align 1
@_ZTVN3fmt3v106detail6bufferIcEE = linkonce_odr dso_local unnamed_addr constant { [3 x ptr] } { [3 x ptr] [ptr null, ptr @_ZTIN3fmt3v106detail6bufferIcEE, ptr @__cxa_pure_virtual] }, comdat, align 8

; Function Attrs: mustprogress nounwind uwtable
define linkonce_odr dso_local void @_ZN3fmt3v106detail6bufferIcEC2Em(ptr noundef nonnull align 8 dereferenceable(32) %0, i64 noundef %1) unnamed_addr #0 comdat align 2 {
  %3 = alloca ptr, align 8
  %4 = alloca i64, align 8
  store ptr %0, ptr %3, align 8
  store i64 %1, ptr %4, align 8
  %5 = load ptr, ptr %3, align 8
  store ptr getelementptr inbounds ({ [3 x ptr] }, ptr @_ZTVN3fmt3v106detail6bufferIcEE, i32 0, i32 0, i32 2), ptr %5, align 8
  %6 = getelementptr inbounds %"class.fmt::v10::detail::buffer", ptr %5, i32 0, i32 2
  %7 = load i64, ptr %4, align 8
  store i64 %7, ptr %6, align 8
  %8 = getelementptr inbounds %"class.fmt::v10::detail::buffer", ptr %5, i32 0, i32 3
  %9 = load i64, ptr %4, align 8
  store i64 %9, ptr %8, align 8
  ret void
}

; Function Attrs: mustprogress nounwind uwtable
define linkonce_odr dso_local void @_ZZN3fmt3v106detail13get_containerINSt7__cxx1112basic_stringIcSt11char_traitsIcESaIcEEEEERT_St20back_insert_iteratorIS9_EEN8accessorC2ESB_IS8_E(ptr noundef nonnull align 8 dereferenceable(8) %0, ptr %1) unnamed_addr #0 comdat align 2 {
  %3 = alloca %"class.std::back_insert_iterator", align 8
  %4 = alloca ptr, align 8
  %5 = getelementptr inbounds %"class.std::back_insert_iterator", ptr %3, i32 0, i32 0
  store ptr %1, ptr %5, align 8
  store ptr %0, ptr %4, align 8
  %6 = load ptr, ptr %4, align 8
  call void @llvm.memcpy.p0.p0.i64(ptr align 8 %6, ptr align 8 %3, i64 8, i1 false)
  ret void
}

; Function Attrs: mustprogress nounwind uwtable
define linkonce_odr dso_local void @_ZN3fmt3v106detail15iterator_bufferISt20back_insert_iteratorINSt7__cxx1112basic_stringIcSt11char_traitsIcESaIcEEEEcNS1_13buffer_traitsEEC2ERS9_(ptr noundef nonnull align 8 dereferenceable(40) %0, ptr noundef nonnull align 8 dereferenceable(32) %1) unnamed_addr #0 comdat align 2 {
  %3 = alloca ptr, align 8
  %4 = alloca ptr, align 8
  store ptr %0, ptr %3, align 8
  store ptr %1, ptr %4, align 8
  %5 = load ptr, ptr %3, align 8
  %6 = load ptr, ptr %4, align 8
  %7 = call noundef i64 @_ZNKSt7__cxx1112basic_stringIcSt11char_traitsIcESaIcEE4sizeEv(ptr noundef nonnull align 8 dereferenceable(32) %6) #13
  call void @_ZN3fmt3v106detail6bufferIcEC2Em(ptr noundef nonnull align 8 dereferenceable(32) %5, i64 noundef %7) #13
  store ptr getelementptr inbounds ({ [3 x ptr] }, ptr @_ZTVN3fmt3v106detail15iterator_bufferISt20back_insert_iteratorINSt7__cxx1112basic_stringIcSt11char_traitsIcESaIcEEEEcNS1_13buffer_traitsEEE, i32 0, i32 0, i32 2), ptr %5, align 8
  %8 = getelementptr inbounds %"class.fmt::v10::detail::iterator_buffer", ptr %5, i32 0, i32 1
  %9 = load ptr, ptr %4, align 8
  store ptr %9, ptr %8, align 8
  ret void
}

; Function Attrs: mustprogress uwtable
define linkonce_odr dso_local noundef nonnull align 8 dereferenceable(32) ptr @_ZN3fmt3v106detail13get_containerINSt7__cxx1112basic_stringIcSt11char_traitsIcESaIcEEEEERT_St20back_insert_iteratorIS9_E(ptr %0) #2 comdat {
  %2 = alloca %"class.std::back_insert_iterator", align 8
  %3 = alloca %struct.accessor, align 8
  %4 = alloca %"class.std::back_insert_iterator", align 8
  %5 = getelementptr inbounds %"class.std::back_insert_iterator", ptr %2, i32 0, i32 0
  store ptr %0, ptr %5, align 8
  call void @llvm.memcpy.p0.p0.i64(ptr align 8 %4, ptr align 8 %2, i64 8, i1 false)
  %6 = getelementptr inbounds %"class.std::back_insert_iterator", ptr %4, i32 0, i32 0
  %7 = load ptr, ptr %6, align 8
  call void @_ZZN3fmt3v106detail13get_containerINSt7__cxx1112basic_stringIcSt11char_traitsIcESaIcEEEEERT_St20back_insert_iteratorIS9_EEN8accessorC2ESB_IS8_E(ptr noundef nonnull align 8 dereferenceable(8) %3, ptr %7)
  %8 = getelementptr inbounds %"class.std::back_insert_iterator", ptr %3, i32 0, i32 0
  %9 = load ptr, ptr %8, align 8
  ret ptr %9
}

; Function Attrs: mustprogress uwtable
define linkonce_odr dso_local void @_ZN3fmt3v106detail15iterator_bufferISt20back_insert_iteratorINSt7__cxx1112basic_stringIcSt11char_traitsIcESaIcEEEEcNS1_13buffer_traitsEEC2ESA_m(ptr noundef nonnull align 8 dereferenceable(40) %0, ptr %1, i64 noundef %2) unnamed_addr #2 comdat align 2 {
  %4 = alloca %"class.std::back_insert_iterator", align 8
  %5 = alloca ptr, align 8
  %6 = alloca i64, align 8
  %7 = alloca %"class.std::back_insert_iterator", align 8
  %8 = getelementptr inbounds %"class.std::back_insert_iterator", ptr %4, i32 0, i32 0
  store ptr %1, ptr %8, align 8
  store ptr %0, ptr %5, align 8
  store i64 %2, ptr %6, align 8
  %9 = load ptr, ptr %5, align 8
  call void @llvm.memcpy.p0.p0.i64(ptr align 8 %7, ptr align 8 %4, i64 8, i1 false)
  %10 = getelementptr inbounds %"class.std::back_insert_iterator", ptr %7, i32 0, i32 0
  %11 = load ptr, ptr %10, align 8
  %12 = call noundef nonnull align 8 dereferenceable(32) ptr @_ZN3fmt3v106detail13get_containerINSt7__cxx1112basic_stringIcSt11char_traitsIcESaIcEEEEERT_St20back_insert_iteratorIS9_E(ptr %11)
  call void @_ZN3fmt3v106detail15iterator_bufferISt20back_insert_iteratorINSt7__cxx1112basic_stringIcSt11char_traitsIcESaIcEEEEcNS1_13buffer_traitsEEC2ERS9_(ptr noundef nonnull align 8 dereferenceable(40) %9, ptr noundef nonnull align 8 dereferenceable(32) %12)
  ret void
}

; Function Attrs: mustprogress uwtable
define linkonce_odr dso_local ptr @_ZN3fmt3v106detail15iterator_bufferISt20back_insert_iteratorINSt7__cxx1112basic_stringIcSt11char_traitsIcESaIcEEEEcNS1_13buffer_traitsEE3outEv(ptr noundef nonnull align 8 dereferenceable(40) %0) #2 comdat align 2 {
  %2 = alloca %"class.std::back_insert_iterator", align 8
  %3 = alloca ptr, align 8
  store ptr %0, ptr %3, align 8
  %4 = load ptr, ptr %3, align 8
  %5 = getelementptr inbounds %"class.fmt::v10::detail::iterator_buffer", ptr %4, i32 0, i32 1
  %6 = load ptr, ptr %5, align 8
  %7 = call ptr @_ZSt13back_inserterINSt7__cxx1112basic_stringIcSt11char_traitsIcESaIcEEEESt20back_insert_iteratorIT_ERS7_(ptr noundef nonnull align 8 dereferenceable(32) %6)
  %8 = getelementptr inbounds %"class.std::back_insert_iterator", ptr %2, i32 0, i32 0
  store ptr %7, ptr %8, align 8
  %9 = getelementptr inbounds %"class.std::back_insert_iterator", ptr %2, i32 0, i32 0
  %10 = load ptr, ptr %9, align 8
  ret ptr %10
}

; Function Attrs: mustprogress uwtable
define linkonce_odr dso_local void @_ZN3fmt3v106detail10get_bufferIcSt20back_insert_iteratorINSt7__cxx1112basic_stringIcSt11char_traitsIcESaIcEEEEEENS1_15iterator_bufferIT0_T_NS1_13buffer_traitsEEESC_(ptr dead_on_unwind noalias writable sret(%"class.fmt::v10::detail::iterator_buffer") align 8 %0, ptr %1) #2 comdat {
  %3 = alloca ptr, align 8
  %4 = alloca %"class.std::back_insert_iterator", align 8
  %5 = alloca %"class.std::back_insert_iterator", align 8
  store ptr %0, ptr %3, align 8
  %6 = getelementptr inbounds %"class.std::back_insert_iterator", ptr %4, i32 0, i32 0
  store ptr %1, ptr %6, align 8
  call void @llvm.memcpy.p0.p0.i64(ptr align 8 %5, ptr align 8 %4, i64 8, i1 false)
  %7 = getelementptr inbounds %"class.std::back_insert_iterator", ptr %5, i32 0, i32 0
  %8 = load ptr, ptr %7, align 8
  call void @_ZN3fmt3v106detail15iterator_bufferISt20back_insert_iteratorINSt7__cxx1112basic_stringIcSt11char_traitsIcESaIcEEEEcNS1_13buffer_traitsEEC2ESA_m(ptr noundef nonnull align 8 dereferenceable(40) %0, ptr %8, i64 noundef 0)
  ret void
}

; Function Attrs: mustprogress nounwind uwtable
define linkonce_odr dso_local void @_ZNSt20back_insert_iteratorINSt7__cxx1112basic_stringIcSt11char_traitsIcESaIcEEEEC2ERS5_(ptr noundef nonnull align 8 dereferenceable(8) %0, ptr noundef nonnull align 8 dereferenceable(32) %1) unnamed_addr #0 comdat align 2 {
  %3 = alloca ptr, align 8
  %4 = alloca ptr, align 8
  store ptr %0, ptr %3, align 8
  store ptr %1, ptr %4, align 8
  %5 = load ptr, ptr %3, align 8
  %6 = getelementptr inbounds %"class.std::back_insert_iterator", ptr %5, i32 0, i32 0
  %7 = load ptr, ptr %4, align 8
  store ptr %7, ptr %6, align 8
  ret void
}

; Function Attrs: mustprogress uwtable
define linkonce_odr dso_local ptr @_ZN3fmt3v1010vformat_toISt20back_insert_iteratorINSt7__cxx1112basic_stringIcSt11char_traitsIcESaIcEEEETnNSt9enable_ifIXsr6detail18is_output_iteratorIT_cEE5valueEiE4typeELi0EEESB_SB_NS0_17basic_string_viewIcEENS0_17basic_format_argsINS0_20basic_format_contextINS0_8appenderEcEEEE(ptr %0, ptr %1, i64 %2, i64 %3, ptr %4) #2 comdat {
  %6 = alloca %"class.std::back_insert_iterator", align 8
  %7 = alloca %"class.std::back_insert_iterator", align 8
  %8 = alloca ptr, align 8
  %9 = alloca ptr, align 8
  %10 = alloca %"class.std::back_insert_iterator", align 8
  %11 = alloca %"class.std::back_insert_iterator", align 8
  %12 = alloca %"class.fmt::v10::basic_string_view", align 8
  %13 = alloca %"class.fmt::v10::basic_format_args", align 8
  %14 = alloca ptr, align 8
  %15 = alloca %"class.fmt::v10::detail::iterator_buffer", align 8
  %16 = alloca %"class.std::back_insert_iterator", align 8
  %17 = alloca %"class.fmt::v10::basic_string_view", align 8
  %18 = alloca %"class.fmt::v10::basic_format_args", align 8
  %19 = alloca %"class.fmt::v10::detail::locale_ref", align 8
  %20 = alloca %"class.std::back_insert_iterator", align 8
  %21 = getelementptr inbounds %"class.std::back_insert_iterator", ptr %11, i32 0, i32 0
  store ptr %0, ptr %21, align 8
  %22 = getelementptr inbounds { ptr, i64 }, ptr %12, i32 0, i32 0
  store ptr %1, ptr %22, align 8
  %23 = getelementptr inbounds { ptr, i64 }, ptr %12, i32 0, i32 1
  store i64 %2, ptr %23, align 8
  %24 = getelementptr inbounds { i64, ptr }, ptr %13, i32 0, i32 0
  store i64 %3, ptr %24, align 8
  %25 = getelementptr inbounds { i64, ptr }, ptr %13, i32 0, i32 1
  store ptr %4, ptr %25, align 8
  call void @llvm.memcpy.p0.p0.i64(ptr align 8 %16, ptr align 8 %11, i64 8, i1 false)
  %26 = getelementptr inbounds %"class.std::back_insert_iterator", ptr %16, i32 0, i32 0
  %27 = load ptr, ptr %26, align 8
  call void @_ZN3fmt3v106detail10get_bufferIcSt20back_insert_iteratorINSt7__cxx1112basic_stringIcSt11char_traitsIcESaIcEEEEEENS1_15iterator_bufferIT0_T_NS1_13buffer_traitsEEESC_(ptr dead_on_unwind writable sret(%"class.fmt::v10::detail::iterator_buffer") align 8 %15, ptr %27)
  store ptr %15, ptr %14, align 8
  %28 = load ptr, ptr %14, align 8
  call void @llvm.memcpy.p0.p0.i64(ptr align 8 %17, ptr align 8 %12, i64 16, i1 false)
  call void @llvm.memcpy.p0.p0.i64(ptr align 8 %18, ptr align 8 %13, i64 16, i1 false)
  store ptr %19, ptr %9, align 8
  %29 = load ptr, ptr %9, align 8
  store ptr null, ptr %29, align 8
  %30 = getelementptr inbounds { ptr, i64 }, ptr %17, i32 0, i32 0
  %31 = load ptr, ptr %30, align 8
  %32 = getelementptr inbounds { ptr, i64 }, ptr %17, i32 0, i32 1
  %33 = load i64, ptr %32, align 8
  %34 = getelementptr inbounds { i64, ptr }, ptr %18, i32 0, i32 0
  %35 = load i64, ptr %34, align 8
  %36 = getelementptr inbounds { i64, ptr }, ptr %18, i32 0, i32 1
  %37 = load ptr, ptr %36, align 8
  %38 = getelementptr inbounds %"class.fmt::v10::detail::locale_ref", ptr %19, i32 0, i32 0
  %39 = load ptr, ptr %38, align 8
  call void @_ZN3fmt3v106detail10vformat_toIcEEvRNS1_6bufferIT_EENS0_17basic_string_viewIS4_EENS1_12vformat_argsIS4_E4typeENS1_10locale_refE(ptr noundef nonnull align 8 dereferenceable(32) %28, ptr %31, i64 %33, i64 %35, ptr %37, ptr %39)
  %40 = load ptr, ptr %14, align 8
  call void @llvm.memcpy.p0.p0.i64(ptr align 8 %20, ptr align 8 %11, i64 8, i1 false)
  %41 = getelementptr inbounds %"class.std::back_insert_iterator", ptr %20, i32 0, i32 0
  %42 = load ptr, ptr %41, align 8
  store ptr %42, ptr %7, align 8
  store ptr %40, ptr %8, align 8
  %43 = load ptr, ptr %8, align 8
  %44 = call ptr @_ZN3fmt3v106detail15iterator_bufferISt20back_insert_iteratorINSt7__cxx1112basic_stringIcSt11char_traitsIcESaIcEEEEcNS1_13buffer_traitsEE3outEv(ptr noundef nonnull align 8 dereferenceable(40) %43)
  store ptr %44, ptr %6, align 8
  %45 = load ptr, ptr %6, align 8
  %46 = getelementptr inbounds %"class.std::back_insert_iterator", ptr %10, i32 0, i32 0
  store ptr %45, ptr %46, align 8
  %47 = getelementptr inbounds %"class.std::back_insert_iterator", ptr %10, i32 0, i32 0
  %48 = load ptr, ptr %47, align 8
  ret ptr %48
}

; Function Attrs: mustprogress uwtable
define linkonce_odr dso_local { i64, i64 } @_ZN3fmt3v1016make_format_argsINS0_20basic_format_contextINS0_8appenderEcEEJKiEEENS0_16format_arg_storeIT_JDpNSt9remove_cvINSt16remove_referenceIT0_E4typeEE4typeEEEEDpRSA_(ptr noundef nonnull align 4 dereferenceable(4) %0) #2 comdat {
  %2 = alloca ptr, align 8
  %3 = alloca i32, align 4
  %4 = alloca ptr, align 8
  %5 = alloca i32, align 4
  %6 = alloca ptr, align 8
  %7 = alloca ptr, align 8
  %8 = alloca %"class.fmt::v10::detail::value", align 16
  %9 = alloca ptr, align 8
  %10 = alloca i8, align 1
  %11 = alloca i8, align 1
  %12 = alloca i8, align 1
  %13 = alloca %"struct.fmt::v10::detail::arg_mapper", align 1
  %14 = alloca ptr, align 8
  %15 = alloca ptr, align 8
  %16 = alloca %"class.fmt::v10::detail::value", align 16
  %17 = alloca %"class.fmt::v10::format_arg_store", align 16
  %18 = alloca ptr, align 8
  store ptr %0, ptr %18, align 8
  %19 = load ptr, ptr %18, align 8
  store ptr %17, ptr %14, align 8
  store ptr %19, ptr %15, align 8
  %20 = load ptr, ptr %14, align 8
  %21 = load ptr, ptr %15, align 8
  store ptr %21, ptr %9, align 8
  store i8 1, ptr %10, align 1
  store i8 1, ptr %11, align 1
  store i8 1, ptr %12, align 1
  %22 = load ptr, ptr %9, align 8
  %23 = load i32, ptr %22, align 4
  store ptr %13, ptr %4, align 8
  store i32 %23, ptr %5, align 4
  %24 = load i32, ptr %5, align 4
  store ptr %8, ptr %2, align 8
  store i32 %24, ptr %3, align 4
  %25 = load ptr, ptr %2, align 8
  %26 = load i32, ptr %3, align 4
  store i32 %26, ptr %25, align 16
  %27 = load { i64, i64 }, ptr %8, align 16
  %28 = extractvalue { i64, i64 } %27, 0
  store i64 %28, ptr %16, align 16
  %29 = getelementptr inbounds { i64, i64 }, ptr %16, i32 0, i32 1
  %30 = extractvalue { i64, i64 } %27, 1
  store i64 %30, ptr %29, align 8
  store ptr %20, ptr %6, align 8
  store ptr %16, ptr %7, align 8
  %31 = load ptr, ptr %6, align 8
  %32 = load ptr, ptr %7, align 8
  call void @llvm.memcpy.p0.p0.i64(ptr align 16 %31, ptr align 16 %32, i64 16, i1 false)
  %33 = getelementptr inbounds %"class.fmt::v10::format_arg_store", ptr %17, i32 0, i32 0
  %34 = getelementptr inbounds %"struct.fmt::v10::detail::arg_data", ptr %33, i32 0, i32 0
  %35 = load { i64, i64 }, ptr %34, align 16
  ret { i64, i64 } %35
}

; Function Attrs: mustprogress nounwind uwtable
define linkonce_odr dso_local noundef i64 @_ZNSt11char_traitsIcE6lengthEPKc(ptr noundef %0) #0 comdat align 2 {
  %2 = alloca ptr, align 8
  store ptr %0, ptr %2, align 8
  %3 = load ptr, ptr %2, align 8
  %4 = call i64 @strlen(ptr noundef %3) #13
  ret i64 %4
}

; Function Attrs: mustprogress uwtable
define linkonce_odr dso_local ptr @_ZSt13back_inserterINSt7__cxx1112basic_stringIcSt11char_traitsIcESaIcEEEESt20back_insert_iteratorIT_ERS7_(ptr noundef nonnull align 8 dereferenceable(32) %0) #2 comdat {
  %2 = alloca %"class.std::back_insert_iterator", align 8
  %3 = alloca ptr, align 8
  store ptr %0, ptr %3, align 8
  %4 = load ptr, ptr %3, align 8
  call void @_ZNSt20back_insert_iteratorINSt7__cxx1112basic_stringIcSt11char_traitsIcESaIcEEEEC2ERS5_(ptr noundef nonnull align 8 dereferenceable(8) %2, ptr noundef nonnull align 8 dereferenceable(32) %4)
  %5 = getelementptr inbounds %"class.std::back_insert_iterator", ptr %2, i32 0, i32 0
  %6 = load ptr, ptr %5, align 8
  ret ptr %6
}

; Function Attrs: mustprogress uwtable
define dso_local void @_ZNK5vcpkg7Version9to_stringERNSt7__cxx1112basic_stringIcSt11char_traitsIcESaIcEEE(ptr noundef nonnull align 8 dereferenceable(36) %0, ptr noundef nonnull align 8 dereferenceable(32) %1) #2 align 2 {
  %3 = alloca ptr, align 8
  %4 = alloca ptr, align 8
  %5 = alloca ptr, align 8
  %6 = alloca ptr, align 8
  %7 = alloca i64, align 8
  %8 = alloca ptr, align 8
  %9 = alloca ptr, align 8
  %10 = alloca ptr, align 8
  %11 = alloca ptr, align 8
  %12 = alloca %"class.fmt::v10::basic_string_view", align 8
  %13 = alloca ptr, align 8
  %14 = alloca ptr, align 8
  %15 = alloca ptr, align 8
  %16 = alloca %"class.std::back_insert_iterator", align 8
  %17 = alloca %"class.std::back_insert_iterator", align 8
  %18 = alloca %"class.fmt::v10::basic_format_string", align 8
  %19 = alloca ptr, align 8
  %20 = alloca %"class.std::back_insert_iterator", align 8
  %21 = alloca %"class.fmt::v10::basic_string_view", align 8
  %22 = alloca %"class.fmt::v10::basic_format_args", align 8
  %23 = alloca %"class.fmt::v10::format_arg_store", align 16
  %24 = alloca ptr, align 8
  %25 = alloca ptr, align 8
  %26 = alloca %"class.std::back_insert_iterator", align 8
  %27 = alloca %"class.fmt::v10::basic_format_string", align 8
  %28 = alloca %"class.std::back_insert_iterator", align 8
  store ptr %0, ptr %24, align 8
  store ptr %1, ptr %25, align 8
  %29 = load ptr, ptr %24, align 8
  %30 = load ptr, ptr %25, align 8
  %31 = getelementptr inbounds %"struct.vcpkg::Version", ptr %29, i32 0, i32 0
  %32 = call noundef nonnull align 8 dereferenceable(32) ptr @_ZNSt7__cxx1112basic_stringIcSt11char_traitsIcESaIcEE6appendERKS4_(ptr noundef nonnull align 8 dereferenceable(32) %30, ptr noundef nonnull align 8 dereferenceable(32) %31)
  %33 = getelementptr inbounds %"struct.vcpkg::Version", ptr %29, i32 0, i32 1
  %34 = load i32, ptr %33, align 8
  %35 = icmp ne i32 %34, 0
  br i1 %35, label %36, label %83

36:                                               ; preds = %2
  %37 = load ptr, ptr %25, align 8
  %38 = call ptr @_ZSt13back_inserterINSt7__cxx1112basic_stringIcSt11char_traitsIcESaIcEEEESt20back_insert_iteratorIT_ERS7_(ptr noundef nonnull align 8 dereferenceable(32) %37)
  %39 = getelementptr inbounds %"class.std::back_insert_iterator", ptr %26, i32 0, i32 0
  store ptr %38, ptr %39, align 8
  store ptr %27, ptr %14, align 8
  store ptr @.str, ptr %15, align 8
  %40 = load ptr, ptr %14, align 8
  %41 = load ptr, ptr %15, align 8
  store ptr %40, ptr %4, align 8
  store ptr %41, ptr %5, align 8
  %42 = load ptr, ptr %4, align 8
  %43 = load ptr, ptr %5, align 8
  store ptr %43, ptr %42, align 8
  %44 = getelementptr inbounds %"class.fmt::v10::basic_string_view", ptr %42, i32 0, i32 1
  %45 = load ptr, ptr %5, align 8
  %46 = call noundef i64 @_ZNSt11char_traitsIcE6lengthEPKc(ptr noundef %45)
  store i64 %46, ptr %44, align 8
  %47 = load ptr, ptr %15, align 8
  store ptr %47, ptr %3, align 8
  %48 = getelementptr inbounds %"struct.vcpkg::Version", ptr %29, i32 0, i32 1
  %49 = getelementptr inbounds %"class.std::back_insert_iterator", ptr %26, i32 0, i32 0
  %50 = load ptr, ptr %49, align 8
  %51 = getelementptr inbounds { ptr, i64 }, ptr %27, i32 0, i32 0
  %52 = load ptr, ptr %51, align 8
  %53 = getelementptr inbounds { ptr, i64 }, ptr %27, i32 0, i32 1
  %54 = load i64, ptr %53, align 8
  store ptr %50, ptr %17, align 8
  store ptr %52, ptr %18, align 8
  %55 = getelementptr inbounds { ptr, i64 }, ptr %18, i32 0, i32 1
  store i64 %54, ptr %55, align 8
  store ptr %48, ptr %19, align 8
  call void @llvm.memcpy.p0.p0.i64(ptr align 8 %20, ptr align 8 %17, i64 8, i1 false)
  store ptr %18, ptr %13, align 8
  %56 = load ptr, ptr %13, align 8
  call void @llvm.memcpy.p0.p0.i64(ptr align 8 %12, ptr align 8 %56, i64 16, i1 false)
  %57 = load { ptr, i64 }, ptr %12, align 8
  %58 = extractvalue { ptr, i64 } %57, 0
  store ptr %58, ptr %21, align 8
  %59 = getelementptr inbounds { ptr, i64 }, ptr %21, i32 0, i32 1
  %60 = extractvalue { ptr, i64 } %57, 1
  store i64 %60, ptr %59, align 8
  %61 = load ptr, ptr %19, align 8
  %62 = call { i64, i64 } @_ZN3fmt3v1016make_format_argsINS0_20basic_format_contextINS0_8appenderEcEEJKiEEENS0_16format_arg_storeIT_JDpNSt9remove_cvINSt16remove_referenceIT0_E4typeEE4typeEEEEDpRSA_(ptr noundef nonnull align 4 dereferenceable(4) %61)
  %63 = extractvalue { i64, i64 } %62, 0
  store i64 %63, ptr %23, align 16
  %64 = getelementptr inbounds { i64, i64 }, ptr %23, i32 0, i32 1
  %65 = extractvalue { i64, i64 } %62, 1
  store i64 %65, ptr %64, align 8
  store ptr %22, ptr %10, align 8
  store ptr %23, ptr %11, align 8
  %66 = load ptr, ptr %10, align 8
  %67 = load ptr, ptr %11, align 8
  store ptr %67, ptr %9, align 8
  %68 = load ptr, ptr %9, align 8
  store ptr %66, ptr %6, align 8
  store i64 1, ptr %7, align 8
  store ptr %68, ptr %8, align 8
  %69 = load ptr, ptr %6, align 8
  %70 = load i64, ptr %7, align 8
  store i64 %70, ptr %69, align 8
  %71 = getelementptr inbounds %"class.fmt::v10::basic_format_args", ptr %69, i32 0, i32 1
  %72 = load ptr, ptr %8, align 8
  store ptr %72, ptr %71, align 8
  %73 = load ptr, ptr %20, align 8
  %74 = load ptr, ptr %21, align 8
  %75 = getelementptr inbounds { ptr, i64 }, ptr %21, i32 0, i32 1
  %76 = load i64, ptr %75, align 8
  %77 = load i64, ptr %22, align 8
  %78 = getelementptr inbounds { i64, ptr }, ptr %22, i32 0, i32 1
  %79 = load ptr, ptr %78, align 8
  %80 = call ptr @_ZN3fmt3v1010vformat_toISt20back_insert_iteratorINSt7__cxx1112basic_stringIcSt11char_traitsIcESaIcEEEETnNSt9enable_ifIXsr6detail18is_output_iteratorIT_cEE5valueEiE4typeELi0EEESB_SB_NS0_17basic_string_viewIcEENS0_17basic_format_argsINS0_20basic_format_contextINS0_8appenderEcEEEE(ptr %73, ptr %74, i64 %76, i64 %77, ptr %79)
  store ptr %80, ptr %16, align 8
  %81 = load ptr, ptr %16, align 8
  %82 = getelementptr inbounds %"class.std::back_insert_iterator", ptr %28, i32 0, i32 0
  store ptr %81, ptr %82, align 8
  br label %83

83:                                               ; preds = %36, %2
  ret void
}