; Function Attrs: mustprogress uwtable
define dso_local void @_ZNK5vcpkg7Version9to_stringERNSt7__cxx1112basic_stringIcSt11char_traitsIcESaIcEEE(ptr noundef nonnull align 8 dereferenceable(36) %0, ptr noundef nonnull align 8 dereferenceable(32) %1) local_unnamed_addr #2 align 2 {
  %3 = alloca %"class.fmt::v10::detail::iterator_buffer", align 8
  %4 = alloca %"class.fmt::v10::format_arg_store", align 16
  %5 = tail call noundef nonnull align 8 dereferenceable(32) ptr @_ZNSt7__cxx1112basic_stringIcSt11char_traitsIcESaIcEE6appendERKS4_(ptr noundef nonnull align 8 dereferenceable(32) %1, ptr noundef nonnull align 8 dereferenceable(32) %0)
  %6 = getelementptr inbounds i8, ptr %0, i64 32
  %7 = load i32, ptr %6, align 8
  %.not = icmp eq i32 %7, 0
  br i1 %.not, label %13, label %8

8:                                                ; preds = %2
  %.sroa.0.0.insert.ext.i = zext i32 %7 to i64
  store i64 %.sroa.0.0.insert.ext.i, ptr %4, align 16
  call void @llvm.lifetime.start.p0(i64 40, ptr nonnull %3)
  tail call void @llvm.experimental.noalias.scope.decl(metadata !8)
  %9 = tail call noundef i64 @_ZNKSt7__cxx1112basic_stringIcSt11char_traitsIcESaIcEE4sizeEv(ptr noundef nonnull align 8 dereferenceable(32) %1) #19, !noalias !8
  %10 = getelementptr inbounds i8, ptr %3, i64 16
  store i64 %9, ptr %10, align 8, !alias.scope !8
  %11 = getelementptr inbounds i8, ptr %3, i64 24
  store i64 %9, ptr %11, align 8, !alias.scope !8
  store ptr getelementptr inbounds ({ [3 x ptr] }, ptr @_ZTVN3fmt3v106detail15iterator_bufferISt20back_insert_iteratorINSt7__cxx1112basic_stringIcSt11char_traitsIcESaIcEEEEcNS1_13buffer_traitsEEE, i64 0, i32 0, i64 2), ptr %3, align 8, !alias.scope !8
  %12 = getelementptr inbounds i8, ptr %3, i64 32
  store ptr %1, ptr %12, align 8, !alias.scope !8
  call void @_ZN3fmt3v106detail10vformat_toIcEEvRNS1_6bufferIT_EENS0_17basic_string_viewIS4_EENS1_12vformat_argsIS4_E4typeENS1_10locale_refE(ptr noundef nonnull align 8 dereferenceable(32) %3, ptr nonnull @.str, i64 3, i64 1, ptr nonnull %4, ptr null)
  call void @llvm.lifetime.end.p0(i64 40, ptr nonnull %3)
  br label %13

13:                                               ; preds = %8, %2
  ret void
}